; Function Attrs: mustprogress uwtable
define internal fastcc noundef nonnull align 8 dereferenceable(8) ptr @_ZN7datalogL14display_symbolERSoRK6symbol(ptr noundef nonnull returned align 8 dereferenceable(8) %out, ptr noundef nonnull align 8 dereferenceable(8) %nm) unnamed_addr #3 personality ptr @__gxx_personality_v0 {
entry:
  %ref.tmp = alloca %"class.std::__cxx11::basic_string", align 8
  %call = tail call noundef zeroext i1 @_Z21is_smt2_quoted_symbolRK6symbol(ptr noundef nonnull align 8 dereferenceable(8) %nm)
  br i1 %call, label %if.then, label %if.else

if.then:                                          ; preds = %entry
  call void @_Z21mk_smt2_quoted_symbolB5cxx11RK6symbol(ptr nonnull sret(%"class.std::__cxx11::basic_string") align 8 %ref.tmp, ptr noundef nonnull align 8 dereferenceable(8) %nm)
  %call1 = invoke noundef nonnull align 8 dereferenceable(8) ptr @_ZStlsIcSt11char_traitsIcESaIcEERSt13basic_ostreamIT_T0_ES7_RKNSt7__cxx1112basic_stringIS4_S5_T1_EE(ptr noundef nonnull align 8 dereferenceable(8) %out, ptr noundef nonnull align 8 dereferenceable(32) %ref.tmp)
          to label %invoke.cont unwind label %lpad

invoke.cont:                                      ; preds = %if.then
  call void @_ZNSt7__cxx1112basic_stringIcSt11char_traitsIcESaIcEED1Ev(ptr noundef nonnull align 8 dereferenceable(32) %ref.tmp) #25
  br label %if.end

lpad:                                             ; preds = %if.then
  %0 = landingpad { ptr, i32 }
          cleanup
  call void @_ZNSt7__cxx1112basic_stringIcSt11char_traitsIcESaIcEED1Ev(ptr noundef nonnull align 8 dereferenceable(32) %ref.tmp) #25
  resume { ptr, i32 } %0

if.else:                                          ; preds = %entry
  %agg.tmp.sroa.0.0.copyload = load ptr, ptr %nm, align 8
  %1 = ptrtoint ptr %agg.tmp.sroa.0.0.copyload to i64
  %and.i = and i64 %1, 7
  %cmp.i = icmp eq i64 %and.i, 0
  br i1 %cmp.i, label %if.then.i, label %if.else5.i

if.then.i:                                        ; preds = %if.else
  %tobool.not.i = icmp eq ptr %agg.tmp.sroa.0.0.copyload, null
  br i1 %tobool.not.i, label %if.else.i, label %if.then2.i

if.then2.i:                                       ; preds = %if.then.i
  %call.i = tail call noundef nonnull align 8 dereferenceable(8) ptr @_ZStlsISt11char_traitsIcEERSt13basic_ostreamIcT_ES5_PKc(ptr noundef nonnull align 8 dereferenceable(8) %out, ptr noundef nonnull %agg.tmp.sroa.0.0.copyload)
  br label %if.end

if.else.i:                                        ; preds = %if.then.i
  %call4.i = tail call noundef nonnull align 8 dereferenceable(8) ptr @_ZStlsISt11char_traitsIcEERSt13basic_ostreamIcT_ES5_PKc(ptr noundef nonnull align 8 dereferenceable(8) %out, ptr noundef nonnull @.str.54)
  br label %if.end

if.else5.i:                                       ; preds = %if.else
  %call6.i = tail call noundef nonnull align 8 dereferenceable(8) ptr @_ZStlsISt11char_traitsIcEERSt13basic_ostreamIcT_ES5_PKc(ptr noundef nonnull align 8 dereferenceable(8) %out, ptr noundef nonnull @.str.88)
  %shr.i = lshr i64 %1, 3
  %conv.i = trunc i64 %shr.i to i32
  %call8.i = tail call noundef nonnull align 8 dereferenceable(8) ptr @_ZNSolsEi(ptr noundef nonnull align 8 dereferenceable(8) %call6.i, i32 noundef %conv.i)
  br label %if.end

if.end:                                           ; preds = %if.else5.i, %if.else.i, %if.then2.i, %invoke.cont
  ret ptr %out
}